target datalayout = "e-m:e-p270:32:32-p271:32:32-p272:64:64-i64:64-i128:128-f80:128-n8:16:32:64-S128"
target triple = "x86_64-pc-linux-gnu"

%struct._scsi_task_data = type { i32, ptr, ptr }
%struct._itl_nexus_t = type { i8, ptr }

@cdb_control_fields = hidden constant [6 x ptr] [ptr @hf_scsi_control_vendor_specific, ptr @hf_scsi_control_reserved, ptr @hf_scsi_control_naca, ptr @hf_scsi_control_obs1, ptr @hf_scsi_control_obs2, ptr null], align 16
@hf_scsi_control = hidden global i32 0, align 4
@ett_scsi_control = hidden global i32 0, align 4
@hf_scsi_modesel_flags = internal global i32 0, align 4
@.str.44 = private unnamed_addr constant [17 x i8] c"PF = %u, SP = %u\00", align 1
@hf_scsi_paramlen = internal global i32 0, align 4
@hf_scsi_modesel_mode_data_length8 = internal global i32 0, align 4
@hf_scsi_modesel_dev_sbc_medium_type = internal global i32 0, align 4
@hf_scsi_modesel_medium_type = internal global i32 0, align 4
@hf_scsi_modesel_device_specific_parameter = internal global i32 0, align 4
@hf_scsi_modesel_block_descriptor_length8 = internal global i32 0, align 4

; Function Attrs: nounwind uwtable
define hidden void @dissect_spc_modeselect6(ptr noundef %0, ptr noundef %1, ptr noundef %2, i32 noundef %3, i32 noundef %4, i32 noundef %5, i32 noundef %6, ptr noundef %7) #0 {
  %9 = alloca ptr, align 8
  %10 = alloca ptr, align 8
  %11 = alloca ptr, align 8
  %12 = alloca i32, align 4
  %13 = alloca i32, align 4
  %14 = alloca i32, align 4
  %15 = alloca i32, align 4
  %16 = alloca ptr, align 8
  %17 = alloca i8, align 1
  %18 = alloca i32, align 4
  %19 = alloca i32, align 4
  %20 = alloca ptr, align 8
  store ptr %0, ptr %9, align 8
  store ptr %1, ptr %10, align 8
  store ptr %2, ptr %11, align 8
  store i32 %3, ptr %12, align 4
  store i32 %4, ptr %13, align 4
  store i32 %5, ptr %14, align 4
  store i32 %6, ptr %15, align 4
  store ptr %7, ptr %16, align 8
  %21 = load ptr, ptr %11, align 8
  %22 = icmp ne ptr %21, null
  br i1 %22, label %24, label %23

23:                                               ; preds = %8
  br label %195

24:                                               ; preds = %8
  %25 = load i32, ptr %13, align 4
  %26 = icmp ne i32 %25, 0
  br i1 %26, label %27, label %60

27:                                               ; preds = %24
  %28 = load i32, ptr %14, align 4
  %29 = icmp ne i32 %28, 0
  br i1 %29, label %30, label %60

30:                                               ; preds = %27
  %31 = load ptr, ptr %9, align 8
  %32 = load i32, ptr %12, align 4
  %33 = call zeroext i8 @tvb_get_guint8(ptr noundef %31, i32 noundef %32)
  store i8 %33, ptr %17, align 1
  %34 = load ptr, ptr %11, align 8
  %35 = load i32, ptr @hf_scsi_modesel_flags, align 4
  %36 = load ptr, ptr %9, align 8
  %37 = load i32, ptr %12, align 4
  %38 = load i8, ptr %17, align 1
  %39 = zext i8 %38 to i32
  %40 = load i8, ptr %17, align 1
  %41 = zext i8 %40 to i32
  %42 = and i32 %41, 16
  %43 = load i8, ptr %17, align 1
  %44 = zext i8 %43 to i32
  %45 = and i32 %44, 1
  %46 = call ptr (ptr, i32, ptr, i32, i32, i32, ptr, ...) @proto_tree_add_uint_format(ptr noundef %34, i32 noundef %35, ptr noundef %36, i32 noundef %37, i32 noundef 1, i32 noundef %39, ptr noundef @.str.44, i32 noundef %42, i32 noundef %45)
  %47 = load ptr, ptr %11, align 8
  %48 = load i32, ptr @hf_scsi_paramlen, align 4
  %49 = load ptr, ptr %9, align 8
  %50 = load i32, ptr %12, align 4
  %51 = add i32 %50, 3
  %52 = call ptr @proto_tree_add_item(ptr noundef %47, i32 noundef %48, ptr noundef %49, i32 noundef %51, i32 noundef 1, i32 noundef 0)
  %53 = load ptr, ptr %11, align 8
  %54 = load ptr, ptr %9, align 8
  %55 = load i32, ptr %12, align 4
  %56 = add i32 %55, 4
  %57 = load i32, ptr @hf_scsi_control, align 4
  %58 = load i32, ptr @ett_scsi_control, align 4
  %59 = call ptr @proto_tree_add_bitmask(ptr noundef %53, ptr noundef %54, i32 noundef %56, i32 noundef %57, i32 noundef %58, ptr noundef @cdb_control_fields, i32 noundef 0)
  br label %195

60:                                               ; preds = %27, %24
  %61 = load i32, ptr %15, align 4
  %62 = icmp ult i32 %61, 1
  br i1 %62, label %63, label %64

63:                                               ; preds = %60
  br label %195

64:                                               ; preds = %60
  %65 = load ptr, ptr %11, align 8
  %66 = load i32, ptr @hf_scsi_modesel_mode_data_length8, align 4
  %67 = load ptr, ptr %9, align 8
  %68 = load i32, ptr %12, align 4
  %69 = call ptr @proto_tree_add_item(ptr noundef %65, i32 noundef %66, ptr noundef %67, i32 noundef %68, i32 noundef 1, i32 noundef 0)
  %70 = load i32, ptr %12, align 4
  %71 = add i32 %70, 1
  store i32 %71, ptr %12, align 4
  %72 = load i32, ptr %15, align 4
  %73 = sub i32 %72, 1
  store i32 %73, ptr %15, align 4
  %74 = load i32, ptr %15, align 4
  %75 = icmp ult i32 %74, 1
  br i1 %75, label %76, label %77

76:                                               ; preds = %64
  br label %195

77:                                               ; preds = %64
  %78 = load ptr, ptr %16, align 8
  %79 = getelementptr inbounds %struct._scsi_task_data, ptr %78, i32 0, i32 2
  %80 = load ptr, ptr %79, align 8
  %81 = getelementptr inbounds %struct._itl_nexus_t, ptr %80, i32 0, i32 0
  %82 = load i8, ptr %81, align 8
  %83 = zext i8 %82 to i32
  %84 = and i32 %83, 127
  switch i32 %84, label %91 [
    i32 0, label %85
  ]

85:                                               ; preds = %77
  %86 = load ptr, ptr %11, align 8
  %87 = load i32, ptr @hf_scsi_modesel_dev_sbc_medium_type, align 4
  %88 = load ptr, ptr %9, align 8
  %89 = load i32, ptr %12, align 4
  %90 = call ptr @proto_tree_add_item(ptr noundef %86, i32 noundef %87, ptr noundef %88, i32 noundef %89, i32 noundef 1, i32 noundef 0)
  br label %97

91:                                               ; preds = %77
  %92 = load ptr, ptr %11, align 8
  %93 = load i32, ptr @hf_scsi_modesel_medium_type, align 4
  %94 = load ptr, ptr %9, align 8
  %95 = load i32, ptr %12, align 4
  %96 = call ptr @proto_tree_add_item(ptr noundef %92, i32 noundef %93, ptr noundef %94, i32 noundef %95, i32 noundef 1, i32 noundef 0)
  br label %97

97:                                               ; preds = %91, %85
  %98 = load i32, ptr %12, align 4
  %99 = add i32 %98, 1
  store i32 %99, ptr %12, align 4
  %100 = load i32, ptr %15, align 4
  %101 = sub i32 %100, 1
  store i32 %101, ptr %15, align 4
  %102 = load i32, ptr %15, align 4
  %103 = icmp ult i32 %102, 1
  br i1 %103, label %104, label %105

104:                                              ; preds = %97
  br label %195

105:                                              ; preds = %97
  %106 = load ptr, ptr %11, align 8
  %107 = load i32, ptr @hf_scsi_modesel_device_specific_parameter, align 4
  %108 = load ptr, ptr %9, align 8
  %109 = load i32, ptr %12, align 4
  %110 = call ptr @proto_tree_add_item(ptr noundef %106, i32 noundef %107, ptr noundef %108, i32 noundef %109, i32 noundef 1, i32 noundef 0)
  %111 = load i32, ptr %12, align 4
  %112 = add i32 %111, 1
  store i32 %112, ptr %12, align 4
  %113 = load i32, ptr %15, align 4
  %114 = sub i32 %113, 1
  store i32 %114, ptr %15, align 4
  %115 = load i32, ptr %15, align 4
  %116 = icmp ult i32 %115, 1
  br i1 %116, label %117, label %118

117:                                              ; preds = %105
  br label %195

118:                                              ; preds = %105
  %119 = load ptr, ptr %9, align 8
  %120 = load i32, ptr %12, align 4
  %121 = call zeroext i8 @tvb_get_guint8(ptr noundef %119, i32 noundef %120)
  %122 = zext i8 %121 to i32
  store i32 %122, ptr %19, align 4
  %123 = load ptr, ptr %11, align 8
  %124 = load i32, ptr @hf_scsi_modesel_block_descriptor_length8, align 4
  %125 = load ptr, ptr %9, align 8
  %126 = load i32, ptr %12, align 4
  %127 = call ptr @proto_tree_add_item(ptr noundef %123, i32 noundef %124, ptr noundef %125, i32 noundef %126, i32 noundef 1, i32 noundef 0)
  %128 = load i32, ptr %12, align 4
  %129 = add i32 %128, 1
  store i32 %129, ptr %12, align 4
  %130 = load i32, ptr %15, align 4
  %131 = sub i32 %130, 1
  store i32 %131, ptr %15, align 4
  %132 = load ptr, ptr %9, align 8
  %133 = load i32, ptr %12, align 4
  %134 = call i32 @tvb_reported_length_remaining(ptr noundef %132, i32 noundef %133)
  %135 = icmp sgt i32 %134, 0
  br i1 %135, label %136, label %158

136:                                              ; preds = %118
  %137 = load ptr, ptr %9, align 8
  %138 = load i32, ptr %12, align 4
  %139 = load ptr, ptr %9, align 8
  %140 = load i32, ptr %12, align 4
  %141 = call i32 @tvb_reported_length_remaining(ptr noundef %139, i32 noundef %140)
  %142 = load i32, ptr %19, align 4
  %143 = icmp slt i32 %141, %142
  br i1 %143, label %144, label %148

144:                                              ; preds = %136
  %145 = load ptr, ptr %9, align 8
  %146 = load i32, ptr %12, align 4
  %147 = call i32 @tvb_reported_length_remaining(ptr noundef %145, i32 noundef %146)
  br label %150

148:                                              ; preds = %136
  %149 = load i32, ptr %19, align 4
  br label %150

150:                                              ; preds = %148, %144
  %151 = phi i32 [ %147, %144 ], [ %149, %148 ]
  %152 = load i32, ptr %19, align 4
  %153 = call ptr @tvb_new_subset_length_caplen(ptr noundef %137, i32 noundef %138, i32 noundef %151, i32 noundef %152)
  store ptr %153, ptr %20, align 8
  %154 = load ptr, ptr %20, align 8
  %155 = load ptr, ptr %10, align 8
  %156 = load ptr, ptr %11, align 8
  %157 = load ptr, ptr %16, align 8
  call void @dissect_scsi_blockdescs(ptr noundef %154, ptr noundef %155, ptr noundef %156, ptr noundef %157, i32 noundef 0)
  br label %158

158:                                              ; preds = %150, %118
  %159 = load i32, ptr %19, align 4
  %160 = load i32, ptr %12, align 4
  %161 = add i32 %160, %159
  store i32 %161, ptr %12, align 4
  %162 = load i32, ptr %19, align 4
  %163 = load i32, ptr %15, align 4
  %164 = sub i32 %163, %162
  store i32 %164, ptr %15, align 4
  br label %165

165:                                              ; preds = %175, %158
  %166 = load i32, ptr %15, align 4
  %167 = icmp ugt i32 %166, 0
  br i1 %167, label %168, label %173

168:                                              ; preds = %165
  %169 = load ptr, ptr %9, align 8
  %170 = load i32, ptr %12, align 4
  %171 = call i32 @tvb_bytes_exist(ptr noundef %169, i32 noundef %170, i32 noundef 2)
  %172 = icmp ne i32 %171, 0
  br label %173

173:                                              ; preds = %168, %165
  %174 = phi i1 [ false, %165 ], [ %172, %168 ]
  br i1 %174, label %175, label %194

175:                                              ; preds = %173
  %176 = load ptr, ptr %9, align 8
  %177 = load ptr, ptr %10, align 8
  %178 = load ptr, ptr %11, align 8
  %179 = load i32, ptr %12, align 4
  %180 = load ptr, ptr %16, align 8
  %181 = getelementptr inbounds %struct._scsi_task_data, ptr %180, i32 0, i32 2
  %182 = load ptr, ptr %181, align 8
  %183 = getelementptr inbounds %struct._itl_nexus_t, ptr %182, i32 0, i32 0
  %184 = load i8, ptr %183, align 8
  %185 = zext i8 %184 to i32
  %186 = and i32 %185, 127
  %187 = call i32 @dissect_scsi_modepage(ptr noundef %176, ptr noundef %177, ptr noundef %178, i32 noundef %179, i32 noundef %186)
  store i32 %187, ptr %18, align 4
  %188 = load i32, ptr %18, align 4
  %189 = load i32, ptr %12, align 4
  %190 = add i32 %189, %188
  store i32 %190, ptr %12, align 4
  %191 = load i32, ptr %18, align 4
  %192 = load i32, ptr %15, align 4
  %193 = sub i32 %192, %191
  store i32 %193, ptr %15, align 4
  br label %165, !llvm.loop !14

194:                                              ; preds = %173
  br label %195

195:                                              ; preds = %194, %117, %104, %76, %63, %30, %23
  ret void
}