; Function Attrs: nounwind uwtable
define hidden void @dissect_spc_modeselect6(ptr noundef %0, ptr noundef %1, ptr noundef %2, i32 noundef %3, i32 noundef %4, i32 noundef %5, i32 noundef %6, ptr noundef %7) #0 {
  %.not = icmp eq ptr %2, null
  br i1 %.not, label %.critedge, label %9

9:                                                ; preds = %8
  %10 = icmp ne i32 %4, 0
  %11 = icmp ne i32 %5, 0
  %or.cond = and i1 %10, %11
  br i1 %or.cond, label %12, label %26

12:                                               ; preds = %9
  %13 = tail call zeroext i8 @tvb_get_guint8(ptr noundef %0, i32 noundef %3) #10
  %14 = load i32, ptr @hf_scsi_modesel_flags, align 4
  %15 = zext i8 %13 to i32
  %16 = and i32 %15, 16
  %17 = and i32 %15, 1
  %18 = tail call ptr (ptr, i32, ptr, i32, i32, i32, ptr, ...) @proto_tree_add_uint_format(ptr noundef nonnull %2, i32 noundef %14, ptr noundef %0, i32 noundef %3, i32 noundef 1, i32 noundef %15, ptr noundef nonnull @.str.44, i32 noundef %16, i32 noundef %17) #10
  %19 = load i32, ptr @hf_scsi_paramlen, align 4
  %20 = add i32 %3, 3
  %21 = tail call ptr @proto_tree_add_item(ptr noundef nonnull %2, i32 noundef %19, ptr noundef %0, i32 noundef %20, i32 noundef 1, i32 noundef 0) #10
  %22 = add i32 %3, 4
  %23 = load i32, ptr @hf_scsi_control, align 4
  %24 = load i32, ptr @ett_scsi_control, align 4
  %25 = tail call ptr @proto_tree_add_bitmask(ptr noundef nonnull %2, ptr noundef %0, i32 noundef %22, i32 noundef %23, i32 noundef %24, ptr noundef nonnull @cdb_control_fields, i32 noundef 0) #10
  br label %.critedge

26:                                               ; preds = %9
  %27 = icmp eq i32 %6, 0
  br i1 %27, label %.critedge, label %28

28:                                               ; preds = %26
  %29 = load i32, ptr @hf_scsi_modesel_mode_data_length8, align 4
  %30 = tail call ptr @proto_tree_add_item(ptr noundef nonnull %2, i32 noundef %29, ptr noundef %0, i32 noundef %3, i32 noundef 1, i32 noundef 0) #10
  %31 = icmp eq i32 %6, 1
  br i1 %31, label %.critedge, label %32

32:                                               ; preds = %28
  %33 = add i32 %3, 1
  %34 = getelementptr inbounds nuw i8, ptr %7, i64 16
  %35 = load ptr, ptr %34, align 8
  %36 = load i8, ptr %35, align 8
  %37 = and i8 %36, 127
  %cond = icmp eq i8 %37, 0
  %hf_scsi_modesel_dev_sbc_medium_type.val = load i32, ptr @hf_scsi_modesel_dev_sbc_medium_type, align 4
  %hf_scsi_modesel_medium_type.val = load i32, ptr @hf_scsi_modesel_medium_type, align 4
  %38 = select i1 %cond, i32 %hf_scsi_modesel_dev_sbc_medium_type.val, i32 %hf_scsi_modesel_medium_type.val
  %39 = tail call ptr @proto_tree_add_item(ptr noundef nonnull %2, i32 noundef %38, ptr noundef %0, i32 noundef %33, i32 noundef 1, i32 noundef 0) #10
  %40 = icmp eq i32 %6, 2
  br i1 %40, label %.critedge, label %41

41:                                               ; preds = %32
  %42 = add i32 %3, 2
  %43 = load i32, ptr @hf_scsi_modesel_device_specific_parameter, align 4
  %44 = tail call ptr @proto_tree_add_item(ptr noundef nonnull %2, i32 noundef %43, ptr noundef %0, i32 noundef %42, i32 noundef 1, i32 noundef 0) #10
  %45 = icmp eq i32 %6, 3
  br i1 %45, label %.critedge, label %46

46:                                               ; preds = %41
  %47 = add i32 %3, 3
  %48 = tail call zeroext i8 @tvb_get_guint8(ptr noundef %0, i32 noundef %47) #10
  %49 = zext i8 %48 to i32
  %50 = load i32, ptr @hf_scsi_modesel_block_descriptor_length8, align 4
  %51 = tail call ptr @proto_tree_add_item(ptr noundef nonnull %2, i32 noundef %50, ptr noundef %0, i32 noundef %47, i32 noundef 1, i32 noundef 0) #10
  %52 = add i32 %3, 4
  %53 = add i32 %6, -4
  %54 = tail call i32 @tvb_reported_length_remaining(ptr noundef %0, i32 noundef %52) #10
  %55 = icmp sgt i32 %54, 0
  br i1 %55, label %56, label %64

56:                                               ; preds = %46
  %57 = tail call i32 @tvb_reported_length_remaining(ptr noundef %0, i32 noundef %52) #10
  %58 = icmp slt i32 %57, %49
  br i1 %58, label %59, label %61

59:                                               ; preds = %56
  %60 = tail call i32 @tvb_reported_length_remaining(ptr noundef %0, i32 noundef %52) #10
  br label %61

61:                                               ; preds = %56, %59
  %62 = phi i32 [ %60, %59 ], [ %49, %56 ]
  %63 = tail call ptr @tvb_new_subset_length_caplen(ptr noundef %0, i32 noundef %52, i32 noundef %62, i32 noundef %49) #10
  tail call fastcc void @dissect_scsi_blockdescs(ptr noundef %63, ptr noundef %2, ptr noundef nonnull %7, i32 noundef 0)
  br label %64

64:                                               ; preds = %61, %46
  %65 = sub i32 %53, %49
  %.not8587 = icmp eq i32 %65, 0
  br i1 %.not8587, label %.critedge, label %.lr.ph.preheader

.lr.ph.preheader:                                 ; preds = %64
  %66 = add i32 %52, %49
  br label %.lr.ph

.lr.ph:                                           ; preds = %.lr.ph.preheader, %68
  %.089 = phi i32 [ %74, %68 ], [ %66, %.lr.ph.preheader ]
  %.07888 = phi i32 [ %75, %68 ], [ %65, %.lr.ph.preheader ]
  %67 = tail call i32 @tvb_bytes_exist(ptr noundef %0, i32 noundef %.089, i32 noundef 2) #10
  %.not86 = icmp eq i32 %67, 0
  br i1 %.not86, label %.critedge, label %68

68:                                               ; preds = %.lr.ph
  %69 = load ptr, ptr %34, align 8
  %70 = load i8, ptr %69, align 8
  %71 = and i8 %70, 127
  %72 = zext nneg i8 %71 to i32
  %73 = tail call fastcc i32 @dissect_scsi_modepage(ptr noundef %0, ptr noundef %1, ptr noundef %2, i32 noundef %.089, i32 noundef %72)
  %74 = add i32 %73, %.089
  %75 = sub i32 %.07888, %73
  %.not85 = icmp eq i32 %75, 0
  br i1 %.not85, label %.critedge, label %.lr.ph, !llvm.loop !13

.critedge:                                        ; preds = %68, %.lr.ph, %64, %41, %32, %28, %26, %8, %12
  ret void
}